target datalayout = "e-m:e-p270:32:32-p271:32:32-p272:64:64-i64:64-i128:128-f80:128-n8:16:32:64-S128"
target triple = "x86_64-pc-linux-gnu"

%struct.CPpmd7z_RangeEnc = type { i64, i32, i8, i64, ptr }
%struct.IByteOut = type { ptr, ptr }

; Function Attrs: nounwind uwtable
define internal void @RangeEnc_ShiftLow(ptr noundef %0) #0 {
  %2 = alloca ptr, align 8
  %3 = alloca i8, align 1
  store ptr %0, ptr %2, align 8, !tbaa !4
  %4 = load ptr, ptr %2, align 8, !tbaa !4
  %5 = getelementptr inbounds nuw %struct.CPpmd7z_RangeEnc, ptr %4, i32 0, i32 0
  %6 = load i64, ptr %5, align 8, !tbaa !72
  %7 = trunc i64 %6 to i32
  %8 = icmp ult i32 %7, -16777216
  br i1 %8, label %16, label %9

9:                                                ; preds = %1
  %10 = load ptr, ptr %2, align 8, !tbaa !4
  %11 = getelementptr inbounds nuw %struct.CPpmd7z_RangeEnc, ptr %10, i32 0, i32 0
  %12 = load i64, ptr %11, align 8, !tbaa !72
  %13 = lshr i64 %12, 32
  %14 = trunc i64 %13 to i32
  %15 = icmp ne i32 %14, 0
  br i1 %15, label %16, label %54

16:                                               ; preds = %9, %1
  call void @llvm.lifetime.start.p0(i64 1, ptr %3) #6
  %17 = load ptr, ptr %2, align 8, !tbaa !4
  %18 = getelementptr inbounds nuw %struct.CPpmd7z_RangeEnc, ptr %17, i32 0, i32 2
  %19 = load i8, ptr %18, align 4, !tbaa !76
  store i8 %19, ptr %3, align 1, !tbaa !16
  br label %20

20:                                               ; preds = %39, %16
  %21 = load ptr, ptr %2, align 8, !tbaa !4
  %22 = getelementptr inbounds nuw %struct.CPpmd7z_RangeEnc, ptr %21, i32 0, i32 4
  %23 = load ptr, ptr %22, align 8, !tbaa !135
  %24 = getelementptr inbounds nuw %struct.IByteOut, ptr %23, i32 0, i32 1
  %25 = load ptr, ptr %24, align 8, !tbaa !136
  %26 = load ptr, ptr %2, align 8, !tbaa !4
  %27 = getelementptr inbounds nuw %struct.CPpmd7z_RangeEnc, ptr %26, i32 0, i32 4
  %28 = load ptr, ptr %27, align 8, !tbaa !135
  %29 = load i8, ptr %3, align 1, !tbaa !16
  %30 = zext i8 %29 to i32
  %31 = load ptr, ptr %2, align 8, !tbaa !4
  %32 = getelementptr inbounds nuw %struct.CPpmd7z_RangeEnc, ptr %31, i32 0, i32 0
  %33 = load i64, ptr %32, align 8, !tbaa !72
  %34 = lshr i64 %33, 32
  %35 = trunc i64 %34 to i8
  %36 = zext i8 %35 to i32
  %37 = add nsw i32 %30, %36
  %38 = trunc i32 %37 to i8
  call void %25(ptr noundef %28, i8 noundef zeroext %38)
  store i8 -1, ptr %3, align 1, !tbaa !16
  br label %39

39:                                               ; preds = %20
  %40 = load ptr, ptr %2, align 8, !tbaa !4
  %41 = getelementptr inbounds nuw %struct.CPpmd7z_RangeEnc, ptr %40, i32 0, i32 3
  %42 = load i64, ptr %41, align 8, !tbaa !77
  %43 = add i64 %42, -1
  store i64 %43, ptr %41, align 8, !tbaa !77
  %44 = icmp ne i64 %43, 0
  br i1 %44, label %20, label %45, !llvm.loop !139

45:                                               ; preds = %39
  %46 = load ptr, ptr %2, align 8, !tbaa !4
  %47 = getelementptr inbounds nuw %struct.CPpmd7z_RangeEnc, ptr %46, i32 0, i32 0
  %48 = load i64, ptr %47, align 8, !tbaa !72
  %49 = trunc i64 %48 to i32
  %50 = lshr i32 %49, 24
  %51 = trunc i32 %50 to i8
  %52 = load ptr, ptr %2, align 8, !tbaa !4
  %53 = getelementptr inbounds nuw %struct.CPpmd7z_RangeEnc, ptr %52, i32 0, i32 2
  store i8 %51, ptr %53, align 4, !tbaa !76
  call void @llvm.lifetime.end.p0(i64 1, ptr %3) #6
  br label %54

54:                                               ; preds = %45, %9
  %55 = load ptr, ptr %2, align 8, !tbaa !4
  %56 = getelementptr inbounds nuw %struct.CPpmd7z_RangeEnc, ptr %55, i32 0, i32 3
  %57 = load i64, ptr %56, align 8, !tbaa !77
  %58 = add i64 %57, 1
  store i64 %58, ptr %56, align 8, !tbaa !77
  %59 = load ptr, ptr %2, align 8, !tbaa !4
  %60 = getelementptr inbounds nuw %struct.CPpmd7z_RangeEnc, ptr %59, i32 0, i32 0
  %61 = load i64, ptr %60, align 8, !tbaa !72
  %62 = trunc i64 %61 to i32
  %63 = shl i32 %62, 8
  %64 = and i32 %63, -1
  %65 = zext i32 %64 to i64
  %66 = load ptr, ptr %2, align 8, !tbaa !4
  %67 = getelementptr inbounds nuw %struct.CPpmd7z_RangeEnc, ptr %66, i32 0, i32 0
  store i64 %65, ptr %67, align 8, !tbaa !72
  ret void
}

; Function Attrs: nounwind uwtable
define internal void @Ppmd7z_RangeEnc_FlushData(ptr noundef %0) #0 {
  %2 = alloca ptr, align 8
  %3 = alloca i32, align 4
  store ptr %0, ptr %2, align 8, !tbaa !4
  call void @llvm.lifetime.start.p0(i64 4, ptr %3) #6
  store i32 0, ptr %3, align 4, !tbaa !15
  br label %4

4:                                                ; preds = %9, %1
  %5 = load i32, ptr %3, align 4, !tbaa !15
  %6 = icmp ult i32 %5, 5
  br i1 %6, label %7, label %12

7:                                                ; preds = %4
  %8 = load ptr, ptr %2, align 8, !tbaa !4
  call void @RangeEnc_ShiftLow(ptr noundef %8)
  br label %9

9:                                                ; preds = %7
  %10 = load i32, ptr %3, align 4, !tbaa !15
  %11 = add i32 %10, 1
  store i32 %11, ptr %3, align 4, !tbaa !15
  br label %4, !llvm.loop !78

12:                                               ; preds = %4
  call void @llvm.lifetime.end.p0(i64 4, ptr %3) #6
  ret void
}