; Function Attrs: nounwind uwtable
define internal void @Ppmd7z_RangeEnc_FlushData(ptr noundef captures(none) %0) #4 {
  %2 = getelementptr inbounds nuw i8, ptr %0, i64 12
  %3 = getelementptr inbounds nuw i8, ptr %0, i64 24
  %4 = getelementptr inbounds nuw i8, ptr %0, i64 16
  %.pre = load i64, ptr %0, align 8, !tbaa !75
  br label %5

5:                                                ; preds = %1, %RangeEnc_ShiftLow.exit
  %6 = phi i64 [ %.pre, %1 ], [ %28, %RangeEnc_ShiftLow.exit ]
  %.02 = phi i32 [ 0, %1 ], [ %29, %RangeEnc_ShiftLow.exit ]
  %7 = and i64 %6, -16777216
  %or.cond.i = icmp eq i64 %7, 4278190080
  br i1 %or.cond.i, label %._crit_edge.i, label %9

._crit_edge.i:                                    ; preds = %5
  %.pre.i = load i64, ptr %4, align 8, !tbaa !80
  %8 = add i64 %.pre.i, 1
  br label %RangeEnc_ShiftLow.exit

9:                                                ; preds = %5
  %10 = load i8, ptr %2, align 4, !tbaa !79
  br label %11

11:                                               ; preds = %11, %9
  %.0.i = phi i8 [ %10, %9 ], [ -1, %11 ]
  %12 = load ptr, ptr %3, align 8, !tbaa !81
  %13 = getelementptr inbounds nuw i8, ptr %12, i64 8
  %14 = load ptr, ptr %13, align 8, !tbaa !82
  %15 = load i64, ptr %0, align 8, !tbaa !75
  %16 = lshr i64 %15, 32
  %17 = trunc i64 %16 to i8
  %18 = add i8 %.0.i, %17
  tail call void %14(ptr noundef %12, i8 noundef zeroext %18) #13
  %19 = load i64, ptr %4, align 8, !tbaa !80
  %20 = add i64 %19, -1
  store i64 %20, ptr %4, align 8, !tbaa !80
  %.not13.i = icmp eq i64 %20, 0
  br i1 %.not13.i, label %21, label %11, !llvm.loop !85

21:                                               ; preds = %11
  %22 = load i64, ptr %0, align 8, !tbaa !75
  %23 = lshr i64 %22, 24
  %24 = trunc i64 %23 to i8
  store i8 %24, ptr %2, align 4, !tbaa !79
  br label %RangeEnc_ShiftLow.exit

RangeEnc_ShiftLow.exit:                           ; preds = %._crit_edge.i, %21
  %25 = phi i64 [ %6, %._crit_edge.i ], [ %22, %21 ]
  %26 = phi i64 [ %8, %._crit_edge.i ], [ 1, %21 ]
  store i64 %26, ptr %4, align 8, !tbaa !80
  %27 = shl i64 %25, 8
  %28 = and i64 %27, 4294967040
  store i64 %28, ptr %0, align 8, !tbaa !75
  %29 = add nuw nsw i32 %.02, 1
  %exitcond.not = icmp eq i32 %29, 5
  br i1 %exitcond.not, label %30, label %5, !llvm.loop !86

30:                                               ; preds = %RangeEnc_ShiftLow.exit
  ret void
}